target datalayout = "e-m:e-p270:32:32-p271:32:32-p272:64:64-i64:64-i128:128-f80:128-n8:16:32:64-S128"
target triple = "x86_64-pc-linux-gnu"

%"class.boost::log::v2_mt_posix::attribute_value_set" = type { ptr }
%"class.boost::log::v2_mt_posix::attribute_value_set::const_iterator" = type { ptr, ptr }
%"class.boost::log::v2_mt_posix::attribute_name" = type { i32 }
%"struct.std::pair" = type <{ %"class.boost::log::v2_mt_posix::attribute_value_set::const_iterator", i8, [7 x i8] }>
%"struct.std::pair.0" = type <{ ptr, i8, [7 x i8] }>

; Function Attrs: mustprogress nounwind uwtable
define linkonce_odr hidden void @_ZNSt4pairIN5boost3log11v2_mt_posix19attribute_value_set14const_iteratorEbEC2IS4_RbTnNSt9enable_ifIXaaclsr5_PCCPE22_MoveConstructiblePairIT_T0_EEclsr5_PCCPE30_ImplicitlyMoveConvertiblePairIS9_SA_EEEbE4typeELb1EEEOS9_OSA_(ptr noundef nonnull align 8 dereferenceable(17) %0, ptr noundef nonnull align 8 dereferenceable(16) %1, ptr noundef nonnull align 1 dereferenceable(1) %2) unnamed_addr #1 comdat align 2 {
  %4 = alloca ptr, align 8
  %5 = alloca ptr, align 8
  %6 = alloca ptr, align 8
  store ptr %0, ptr %4, align 8, !tbaa !3
  store ptr %1, ptr %5, align 8, !tbaa !3
  store ptr %2, ptr %6, align 8, !tbaa !3
  %7 = load ptr, ptr %4, align 8
  %8 = getelementptr inbounds nuw %"struct.std::pair", ptr %7, i32 0, i32 0
  %9 = load ptr, ptr %5, align 8, !tbaa !3
  call void @llvm.memcpy.p0.p0.i64(ptr align 8 %8, ptr align 8 %9, i64 16, i1 false), !tbaa.struct !37
  %10 = getelementptr inbounds nuw %"struct.std::pair", ptr %7, i32 0, i32 1
  %11 = load ptr, ptr %6, align 8, !tbaa !3
  %12 = load i8, ptr %11, align 1, !tbaa !36, !range !38, !noundef !39
  %13 = trunc i8 %12 to i1
  %14 = zext i1 %13 to i8
  store i8 %14, ptr %10, align 8, !tbaa !40
  ret void
}

; Function Attrs: mustprogress nounwind uwtable
define linkonce_odr hidden void @_ZN5boost3log11v2_mt_posix19attribute_value_set14const_iteratorC2EPNS2_9node_baseEPS2_(ptr noundef nonnull align 8 dereferenceable(16) %0, ptr noundef %1, ptr noundef %2) unnamed_addr #1 comdat align 2 {
  %4 = alloca ptr, align 8
  %5 = alloca ptr, align 8
  %6 = alloca ptr, align 8
  store ptr %0, ptr %4, align 8, !tbaa !3
  store ptr %1, ptr %5, align 8, !tbaa !3
  store ptr %2, ptr %6, align 8, !tbaa !3
  %7 = load ptr, ptr %4, align 8
  %8 = getelementptr inbounds nuw %"class.boost::log::v2_mt_posix::attribute_value_set::const_iterator", ptr %7, i32 0, i32 0
  %9 = load ptr, ptr %5, align 8, !tbaa !3
  store ptr %9, ptr %8, align 8, !tbaa !24
  %10 = getelementptr inbounds nuw %"class.boost::log::v2_mt_posix::attribute_value_set::const_iterator", ptr %7, i32 0, i32 1
  %11 = load ptr, ptr %6, align 8, !tbaa !3
  store ptr %11, ptr %10, align 8, !tbaa !26
  ret void
}

; Function Attrs: mustprogress uwtable
define void @_ZN5boost3log11v2_mt_posix19attribute_value_set6insertENS1_14attribute_nameERKNS1_15attribute_valueE(ptr dead_on_unwind noalias writable sret(%"struct.std::pair") align 8 %0, ptr noundef nonnull align 8 dereferenceable(8) %1, i32 %2, ptr noundef nonnull align 8 dereferenceable(8) %3) #0 align 2 {
  %5 = alloca %"class.boost::log::v2_mt_posix::attribute_name", align 4
  %6 = alloca ptr, align 8
  %7 = alloca ptr, align 8
  %8 = alloca %"struct.std::pair.0", align 8
  %9 = alloca %"class.boost::log::v2_mt_posix::attribute_name", align 4
  %10 = alloca { ptr, i8 }, align 8
  %11 = alloca %"class.boost::log::v2_mt_posix::attribute_value_set::const_iterator", align 8
  %12 = getelementptr inbounds nuw %"class.boost::log::v2_mt_posix::attribute_name", ptr %5, i32 0, i32 0
  store i32 %2, ptr %12, align 4
  store ptr %1, ptr %6, align 8, !tbaa !3
  store ptr %3, ptr %7, align 8, !tbaa !3
  %13 = load ptr, ptr %6, align 8
  call void @llvm.lifetime.start.p0(i64 16, ptr %8) #14
  %14 = getelementptr inbounds nuw %"class.boost::log::v2_mt_posix::attribute_value_set", ptr %13, i32 0, i32 0
  %15 = load ptr, ptr %14, align 8, !tbaa !9
  call void @llvm.memcpy.p0.p0.i64(ptr align 4 %9, ptr align 4 %5, i64 4, i1 false), !tbaa.struct !27
  %16 = load ptr, ptr %7, align 8, !tbaa !3
  %17 = getelementptr inbounds nuw %"class.boost::log::v2_mt_posix::attribute_name", ptr %9, i32 0, i32 0
  %18 = load i32, ptr %17, align 4
  %19 = call { ptr, i8 } @_ZN5boost3log11v2_mt_posix19attribute_value_set14implementation6insertENS1_14attribute_nameERKNS1_15attribute_valueE(ptr noundef nonnull align 8 dereferenceable(320) %15, i32 %18, ptr noundef nonnull align 8 dereferenceable(8) %16)
  store { ptr, i8 } %19, ptr %10, align 8
  call void @llvm.memcpy.p0.p0.i64(ptr align 8 %8, ptr align 8 %10, i64 9, i1 false)
  call void @llvm.lifetime.start.p0(i64 16, ptr %11) #14
  %20 = getelementptr inbounds nuw %"struct.std::pair.0", ptr %8, i32 0, i32 0
  %21 = load ptr, ptr %20, align 8, !tbaa !33
  call void @_ZN5boost3log11v2_mt_posix19attribute_value_set14const_iteratorC2EPNS2_9node_baseEPS2_(ptr noundef nonnull align 8 dereferenceable(16) %11, ptr noundef %21, ptr noundef %13) #14
  %22 = getelementptr inbounds nuw %"struct.std::pair.0", ptr %8, i32 0, i32 1
  call void @_ZNSt4pairIN5boost3log11v2_mt_posix19attribute_value_set14const_iteratorEbEC2IS4_RbTnNSt9enable_ifIXaaclsr5_PCCPE22_MoveConstructiblePairIT_T0_EEclsr5_PCCPE30_ImplicitlyMoveConvertiblePairIS9_SA_EEEbE4typeELb1EEEOS9_OSA_(ptr noundef nonnull align 8 dereferenceable(17) %0, ptr noundef nonnull align 8 dereferenceable(16) %11, ptr noundef nonnull align 1 dereferenceable(1) %22)
  call void @llvm.lifetime.end.p0(i64 16, ptr %11) #14
  call void @llvm.lifetime.end.p0(i64 16, ptr %8) #14
  ret void
}