; Function Attrs: mustprogress uwtable
define void @_ZN5boost3log11v2_mt_posix19attribute_value_set6insertENS1_14attribute_nameERKNS1_15attribute_valueE(ptr dead_on_unwind noalias nocapture writable writeonly sret(%"struct.std::pair") align 8 %0, ptr noundef nonnull align 8 dereferenceable(8) %1, i32 %2, ptr noundef nonnull align 8 dereferenceable(8) %3) local_unnamed_addr #0 align 2 {
  %5 = load ptr, ptr %1, align 8, !tbaa !21
  %6 = tail call { ptr, i8 } @_ZN5boost3log11v2_mt_posix19attribute_value_set14implementation6insertENS1_14attribute_nameERKNS1_15attribute_valueE(ptr noundef nonnull align 8 dereferenceable(320) %5, i32 %2, ptr noundef nonnull align 8 dereferenceable(8) %3)
  %.fca.0.extract = extractvalue { ptr, i8 } %6, 0
  %.fca.1.extract = extractvalue { ptr, i8 } %6, 1
  store ptr %.fca.0.extract, ptr %0, align 8, !tbaa !52
  %.sroa.4.0..sroa_idx = getelementptr inbounds i8, ptr %0, i64 8
  store ptr %1, ptr %.sroa.4.0..sroa_idx, align 8, !tbaa !52
  %7 = getelementptr inbounds nuw i8, ptr %0, i64 16
  store i8 %.fca.1.extract, ptr %7, align 8, !tbaa !56
  ret void
}